; Function Attrs: nofree norecurse nosync nounwind memory(readwrite, inaccessiblemem: none) uwtable
define range(i32 0, 2) i32 @Kit_SopDivisor(ptr noundef captures(none) %0, ptr noundef readonly captures(none) %1, i32 noundef %2, ptr noundef captures(none) %3) local_unnamed_addr #0 {
  %5 = getelementptr i8, ptr %1, i64 4
  %.val = load i32, ptr %5, align 4, !tbaa !3
  %6 = icmp sgt i32 %.val, 1
  %7 = icmp sgt i32 %2, 0
  %or.cond = and i1 %7, %6
  br i1 %or.cond, label %.preheader.lr.ph.split.us.i, label %Kit_SopAnyLiteral.exit.thread

.preheader.lr.ph.split.us.i:                      ; preds = %4
  %8 = getelementptr i8, ptr %1, i64 8
  %.val18.us.i = load ptr, ptr %8, align 8, !tbaa !12
  %wide.trip.count.i = zext nneg i32 %.val to i64
  br label %.preheader.us.i

.preheader.us.i:                                  ; preds = %16, %.preheader.lr.ph.split.us.i
  %.01423.us.i = phi i32 [ 0, %.preheader.lr.ph.split.us.i ], [ %17, %16 ]
  br label %9

9:                                                ; preds = %12, %.preheader.us.i
  %indvars.iv.i = phi i64 [ 0, %.preheader.us.i ], [ %indvars.iv.next.i, %12 ]
  %.020.us.i = phi i32 [ 0, %.preheader.us.i ], [ %spec.select.us.i, %12 ]
  %10 = getelementptr inbounds nuw i32, ptr %.val18.us.i, i64 %indvars.iv.i
  %11 = load i32, ptr %10, align 4, !tbaa !15
  %.not.us.i = icmp eq i32 %11, 0
  br i1 %.not.us.i, label %.critedge.us.i, label %12

12:                                               ; preds = %9
  %13 = lshr i32 %11, %.01423.us.i
  %14 = and i32 %13, 1
  %spec.select.us.i = add nuw nsw i32 %14, %.020.us.i
  %indvars.iv.next.i = add nuw nsw i64 %indvars.iv.i, 1
  %exitcond.not.i = icmp eq i64 %indvars.iv.next.i, %wide.trip.count.i
  br i1 %exitcond.not.i, label %.critedge.us.i, label %9, !llvm.loop !31

.critedge.us.i:                                   ; preds = %12, %9
  %.0.lcssa.us.i = phi i32 [ %spec.select.us.i, %12 ], [ %.020.us.i, %9 ]
  %15 = icmp samesign ugt i32 %.0.lcssa.us.i, 1
  br i1 %15, label %Kit_SopAnyLiteral.exit, label %16

16:                                               ; preds = %.critedge.us.i
  %17 = add nuw nsw i32 %.01423.us.i, 1
  %exitcond29.not.i = icmp eq i32 %17, %2
  br i1 %exitcond29.not.i, label %Kit_SopAnyLiteral.exit.thread, label %.preheader.us.i, !llvm.loop !32

Kit_SopAnyLiteral.exit:                           ; preds = %.critedge.us.i
  %18 = getelementptr inbounds nuw i8, ptr %0, i64 4
  store i32 0, ptr %18, align 4, !tbaa !3
  %.val.i8 = load i32, ptr %5, align 4, !tbaa !3
  %19 = icmp eq i32 %.val.i8, 0
  br i1 %19, label %Vec_IntFetch.exit.thread.i, label %21

Vec_IntFetch.exit.thread.i:                       ; preds = %Kit_SopAnyLiteral.exit
  %20 = getelementptr inbounds nuw i8, ptr %0, i64 8
  store ptr null, ptr %20, align 8, !tbaa !12
  br label %Kit_SopDup.exit

21:                                               ; preds = %Kit_SopAnyLiteral.exit
  %22 = getelementptr inbounds nuw i8, ptr %3, i64 4
  %23 = load i32, ptr %22, align 4, !tbaa !10
  %24 = add nsw i32 %23, %.val.i8
  store i32 %24, ptr %22, align 4, !tbaa !10
  %25 = load i32, ptr %3, align 8, !tbaa !13
  %26 = icmp sgt i32 %24, %25
  br i1 %26, label %Vec_IntFetch.exit.i, label %27

27:                                               ; preds = %21
  %28 = getelementptr inbounds nuw i8, ptr %3, i64 8
  %29 = load ptr, ptr %28, align 8, !tbaa !14
  %30 = sext i32 %24 to i64
  %31 = getelementptr inbounds i32, ptr %29, i64 %30
  %32 = sext i32 %.val.i8 to i64
  %33 = sub nsw i64 0, %32
  %34 = getelementptr inbounds i32, ptr %31, i64 %33
  br label %Vec_IntFetch.exit.i

Vec_IntFetch.exit.i:                              ; preds = %27, %21
  %.0.i.i = phi ptr [ %34, %27 ], [ null, %21 ]
  %35 = getelementptr inbounds nuw i8, ptr %0, i64 8
  store ptr %.0.i.i, ptr %35, align 8, !tbaa !12
  %36 = icmp sgt i32 %.val.i8, 0
  br i1 %36, label %.lr.ph.i, label %Kit_SopDup.exit

.lr.ph.i:                                         ; preds = %Vec_IntFetch.exit.i
  %.val12.i = load ptr, ptr %8, align 8, !tbaa !12
  br label %37

37:                                               ; preds = %40, %.lr.ph.i
  %indvars.iv.i9 = phi i64 [ 0, %.lr.ph.i ], [ %indvars.iv.next.i10, %40 ]
  %38 = getelementptr inbounds nuw i32, ptr %.val12.i, i64 %indvars.iv.i9
  %39 = load i32, ptr %38, align 4, !tbaa !15
  %.not.i = icmp eq i32 %39, 0
  br i1 %.not.i, label %Kit_SopDup.exit, label %40

40:                                               ; preds = %37
  %41 = load i32, ptr %18, align 4, !tbaa !3
  %42 = add nsw i32 %41, 1
  store i32 %42, ptr %18, align 4, !tbaa !3
  %43 = sext i32 %41 to i64
  %44 = getelementptr inbounds i32, ptr %.0.i.i, i64 %43
  store i32 %39, ptr %44, align 4, !tbaa !15
  %indvars.iv.next.i10 = add nuw nsw i64 %indvars.iv.i9, 1
  %.val11.i = load i32, ptr %5, align 4, !tbaa !3
  %45 = sext i32 %.val11.i to i64
  %46 = icmp slt i64 %indvars.iv.next.i10, %45
  br i1 %46, label %37, label %Kit_SopDup.exit, !llvm.loop !19

Kit_SopDup.exit:                                  ; preds = %37, %40, %Vec_IntFetch.exit.thread.i, %Vec_IntFetch.exit.i
  tail call void @Kit_SopDivisorZeroKernel_rec(ptr noundef nonnull %0, i32 noundef %2)
  br label %Kit_SopAnyLiteral.exit.thread

Kit_SopAnyLiteral.exit.thread:                    ; preds = %16, %4, %Kit_SopDup.exit
  %.0 = phi i32 [ 1, %Kit_SopDup.exit ], [ 0, %4 ], [ 0, %16 ]
  ret i32 %.0
}